target datalayout = "e-m:e-p270:32:32-p271:32:32-p272:64:64-i64:64-i128:128-f80:128-n8:16:32:64-S128"
target triple = "x86_64-unknown-linux-gnu"

%"struct.(anonymous namespace)::bool_var_act_lt" = type { ptr }
%"class.(anonymous namespace)::act_case_split_queue" = type { %"class.smt::case_split_queue", ptr, ptr, %class.heap }
%"class.smt::case_split_queue" = type { ptr }
%class.heap = type { %"struct.(anonymous namespace)::bool_var_act_lt", %class.svector.86, %class.svector.86 }
%class.svector.86 = type { %class.vector.87 }
%class.vector.87 = type { ptr }
%class.vector.220 = type { ptr }

; Function Attrs: mustprogress nounwind uwtable
define linkonce_odr hidden noundef nonnull align 8 dereferenceable(8) ptr @_ZNK6vectorIdLb0EjEixEj(ptr noundef nonnull align 8 dereferenceable(8) %this, i32 noundef %idx) #4 comdat align 2 {
entry:
  %this.addr = alloca ptr, align 8
  %idx.addr = alloca i32, align 4
  store ptr %this, ptr %this.addr, align 8
  store i32 %idx, ptr %idx.addr, align 4
  %this1 = load ptr, ptr %this.addr, align 8
  %m_data = getelementptr inbounds %class.vector.220, ptr %this1, i32 0, i32 0
  %0 = load ptr, ptr %m_data, align 8
  %1 = load i32, ptr %idx.addr, align 4
  %idxprom = zext i32 %1 to i64
  %arrayidx = getelementptr inbounds double, ptr %0, i64 %idxprom
  ret ptr %arrayidx
}

; Function Attrs: mustprogress uwtable
define internal noundef zeroext i1 @_ZNK12_GLOBAL__N_115bool_var_act_ltclEjj(ptr noundef nonnull align 8 dereferenceable(8) %this, i32 noundef %v1, i32 noundef %v2) #5 align 2 {
entry:
  %this.addr = alloca ptr, align 8
  %v1.addr = alloca i32, align 4
  %v2.addr = alloca i32, align 4
  store ptr %this, ptr %this.addr, align 8
  store i32 %v1, ptr %v1.addr, align 4
  store i32 %v2, ptr %v2.addr, align 4
  %this1 = load ptr, ptr %this.addr, align 8
  %m_activity = getelementptr inbounds %"struct.(anonymous namespace)::bool_var_act_lt", ptr %this1, i32 0, i32 0
  %0 = load ptr, ptr %m_activity, align 8
  %1 = load i32, ptr %v1.addr, align 4
  %call = call noundef nonnull align 8 dereferenceable(8) ptr @_ZNK6vectorIdLb0EjEixEj(ptr noundef nonnull align 8 dereferenceable(8) %0, i32 noundef %1)
  %2 = load double, ptr %call, align 8
  %m_activity2 = getelementptr inbounds %"struct.(anonymous namespace)::bool_var_act_lt", ptr %this1, i32 0, i32 0
  %3 = load ptr, ptr %m_activity2, align 8
  %4 = load i32, ptr %v2.addr, align 4
  %call3 = call noundef nonnull align 8 dereferenceable(8) ptr @_ZNK6vectorIdLb0EjEixEj(ptr noundef nonnull align 8 dereferenceable(8) %3, i32 noundef %4)
  %5 = load double, ptr %call3, align 8
  %cmp = fcmp ogt double %2, %5
  ret i1 %cmp
}

; Function Attrs: mustprogress uwtable
define internal noundef zeroext i1 @_ZNK4heapIN12_GLOBAL__N_115bool_var_act_ltEE9less_thanEii(ptr noundef nonnull align 8 dereferenceable(24) %this, i32 noundef %v1, i32 noundef %v2) #5 align 2 {
entry:
  %this.addr = alloca ptr, align 8
  %v1.addr = alloca i32, align 4
  %v2.addr = alloca i32, align 4
  store ptr %this, ptr %this.addr, align 8
  store i32 %v1, ptr %v1.addr, align 4
  store i32 %v2, ptr %v2.addr, align 4
  %this1 = load ptr, ptr %this.addr, align 8
  %0 = load i32, ptr %v1.addr, align 4
  %1 = load i32, ptr %v2.addr, align 4
  %call = call noundef zeroext i1 @_ZNK12_GLOBAL__N_115bool_var_act_ltclEjj(ptr noundef nonnull align 8 dereferenceable(8) %this1, i32 noundef %0, i32 noundef %1)
  ret i1 %call
}

; Function Attrs: mustprogress nounwind uwtable
define internal noundef i32 @_ZN4heapIN12_GLOBAL__N_115bool_var_act_ltEE5rightEi(i32 noundef %i) #4 align 2 {
entry:
  %i.addr = alloca i32, align 4
  store i32 %i, ptr %i.addr, align 4
  %0 = load i32, ptr %i.addr, align 4
  %shl = shl i32 %0, 1
  %add = add nsw i32 %shl, 1
  ret i32 %add
}

; Function Attrs: mustprogress nounwind uwtable
define internal noundef i32 @_ZN4heapIN12_GLOBAL__N_115bool_var_act_ltEE4leftEi(i32 noundef %i) #4 align 2 {
entry:
  %i.addr = alloca i32, align 4
  store i32 %i, ptr %i.addr, align 4
  %0 = load i32, ptr %i.addr, align 4
  %shl = shl i32 %0, 1
  ret i32 %shl
}

; Function Attrs: mustprogress uwtable
define internal void @_ZN4heapIN12_GLOBAL__N_115bool_var_act_ltEE9move_downEi(ptr noundef nonnull align 8 dereferenceable(24) %this, i32 noundef %idx) #5 align 2 {
entry:
  %this.addr = alloca ptr, align 8
  %idx.addr = alloca i32, align 4
  %val = alloca i32, align 4
  %sz = alloca i32, align 4
  %left_idx = alloca i32, align 4
  %right_idx = alloca i32, align 4
  %min_idx = alloca i32, align 4
  %min_value = alloca i32, align 4
  store ptr %this, ptr %this.addr, align 8
  store i32 %idx, ptr %idx.addr, align 4
  %this1 = load ptr, ptr %this.addr, align 8
  %m_values = getelementptr inbounds %class.heap, ptr %this1, i32 0, i32 1
  %0 = load i32, ptr %idx.addr, align 4
  %call = call noundef nonnull align 4 dereferenceable(4) ptr @_ZN6vectorIiLb0EjEixEj(ptr noundef nonnull align 8 dereferenceable(8) %m_values, i32 noundef %0)
  %1 = load i32, ptr %call, align 4
  store i32 %1, ptr %val, align 4
  %m_values2 = getelementptr inbounds %class.heap, ptr %this1, i32 0, i32 1
  %call3 = call noundef i32 @_ZNK6vectorIiLb0EjE4sizeEv(ptr noundef nonnull align 8 dereferenceable(8) %m_values2)
  store i32 %call3, ptr %sz, align 4
  br label %while.body

while.body:                                       ; preds = %if.end16, %entry
  %2 = load i32, ptr %idx.addr, align 4
  %call4 = call noundef i32 @_ZN4heapIN12_GLOBAL__N_115bool_var_act_ltEE4leftEi(i32 noundef %2)
  store i32 %call4, ptr %left_idx, align 4
  %3 = load i32, ptr %left_idx, align 4
  %4 = load i32, ptr %sz, align 4
  %cmp = icmp sge i32 %3, %4
  br i1 %cmp, label %if.then, label %if.end

if.then:                                          ; preds = %while.body
  br label %while.end

if.end:                                           ; preds = %while.body
  %5 = load i32, ptr %idx.addr, align 4
  %call5 = call noundef i32 @_ZN4heapIN12_GLOBAL__N_115bool_var_act_ltEE5rightEi(i32 noundef %5)
  store i32 %call5, ptr %right_idx, align 4
  %6 = load i32, ptr %right_idx, align 4
  %7 = load i32, ptr %sz, align 4
  %cmp6 = icmp slt i32 %6, %7
  br i1 %cmp6, label %land.lhs.true, label %cond.false

land.lhs.true:                                    ; preds = %if.end
  %m_values7 = getelementptr inbounds %class.heap, ptr %this1, i32 0, i32 1
  %8 = load i32, ptr %right_idx, align 4
  %call8 = call noundef nonnull align 4 dereferenceable(4) ptr @_ZN6vectorIiLb0EjEixEj(ptr noundef nonnull align 8 dereferenceable(8) %m_values7, i32 noundef %8)
  %9 = load i32, ptr %call8, align 4
  %m_values9 = getelementptr inbounds %class.heap, ptr %this1, i32 0, i32 1
  %10 = load i32, ptr %left_idx, align 4
  %call10 = call noundef nonnull align 4 dereferenceable(4) ptr @_ZN6vectorIiLb0EjEixEj(ptr noundef nonnull align 8 dereferenceable(8) %m_values9, i32 noundef %10)
  %11 = load i32, ptr %call10, align 4
  %call11 = call noundef zeroext i1 @_ZNK4heapIN12_GLOBAL__N_115bool_var_act_ltEE9less_thanEii(ptr noundef nonnull align 8 dereferenceable(24) %this1, i32 noundef %9, i32 noundef %11)
  br i1 %call11, label %cond.true, label %cond.false

cond.true:                                        ; preds = %land.lhs.true
  %12 = load i32, ptr %right_idx, align 4
  br label %cond.end

cond.false:                                       ; preds = %land.lhs.true, %if.end
  %13 = load i32, ptr %left_idx, align 4
  br label %cond.end

cond.end:                                         ; preds = %cond.false, %cond.true
  %cond = phi i32 [ %12, %cond.true ], [ %13, %cond.false ]
  store i32 %cond, ptr %min_idx, align 4
  %m_values12 = getelementptr inbounds %class.heap, ptr %this1, i32 0, i32 1
  %14 = load i32, ptr %min_idx, align 4
  %call13 = call noundef nonnull align 4 dereferenceable(4) ptr @_ZN6vectorIiLb0EjEixEj(ptr noundef nonnull align 8 dereferenceable(8) %m_values12, i32 noundef %14)
  %15 = load i32, ptr %call13, align 4
  store i32 %15, ptr %min_value, align 4
  %16 = load i32, ptr %min_value, align 4
  %17 = load i32, ptr %val, align 4
  %call14 = call noundef zeroext i1 @_ZNK4heapIN12_GLOBAL__N_115bool_var_act_ltEE9less_thanEii(ptr noundef nonnull align 8 dereferenceable(24) %this1, i32 noundef %16, i32 noundef %17)
  br i1 %call14, label %if.end16, label %if.then15

if.then15:                                        ; preds = %cond.end
  br label %while.end

if.end16:                                         ; preds = %cond.end
  %18 = load i32, ptr %min_value, align 4
  %m_values17 = getelementptr inbounds %class.heap, ptr %this1, i32 0, i32 1
  %19 = load i32, ptr %idx.addr, align 4
  %call18 = call noundef nonnull align 4 dereferenceable(4) ptr @_ZN6vectorIiLb0EjEixEj(ptr noundef nonnull align 8 dereferenceable(8) %m_values17, i32 noundef %19)
  store i32 %18, ptr %call18, align 4
  %20 = load i32, ptr %idx.addr, align 4
  %m_value2indices = getelementptr inbounds %class.heap, ptr %this1, i32 0, i32 2
  %21 = load i32, ptr %min_value, align 4
  %call19 = call noundef nonnull align 4 dereferenceable(4) ptr @_ZN6vectorIiLb0EjEixEj(ptr noundef nonnull align 8 dereferenceable(8) %m_value2indices, i32 noundef %21)
  store i32 %20, ptr %call19, align 4
  %22 = load i32, ptr %min_idx, align 4
  store i32 %22, ptr %idx.addr, align 4
  br label %while.body, !llvm.loop !8

while.end:                                        ; preds = %if.then15, %if.then
  %23 = load i32, ptr %val, align 4
  %m_values20 = getelementptr inbounds %class.heap, ptr %this1, i32 0, i32 1
  %24 = load i32, ptr %idx.addr, align 4
  %call21 = call noundef nonnull align 4 dereferenceable(4) ptr @_ZN6vectorIiLb0EjEixEj(ptr noundef nonnull align 8 dereferenceable(8) %m_values20, i32 noundef %24)
  store i32 %23, ptr %call21, align 4
  %25 = load i32, ptr %idx.addr, align 4
  %m_value2indices22 = getelementptr inbounds %class.heap, ptr %this1, i32 0, i32 2
  %26 = load i32, ptr %val, align 4
  %call23 = call noundef nonnull align 4 dereferenceable(4) ptr @_ZN6vectorIiLb0EjEixEj(ptr noundef nonnull align 8 dereferenceable(8) %m_value2indices22, i32 noundef %26)
  store i32 %25, ptr %call23, align 4
  ret void
}

; Function Attrs: mustprogress nounwind uwtable
define linkonce_odr hidden noundef nonnull align 4 dereferenceable(4) ptr @_ZN6vectorIiLb0EjEixEj(ptr noundef nonnull align 8 dereferenceable(8) %this, i32 noundef %idx) #4 comdat align 2 {
entry:
  %this.addr = alloca ptr, align 8
  %idx.addr = alloca i32, align 4
  store ptr %this, ptr %this.addr, align 8
  store i32 %idx, ptr %idx.addr, align 4
  %this1 = load ptr, ptr %this.addr, align 8
  %m_data = getelementptr inbounds %class.vector.87, ptr %this1, i32 0, i32 0
  %0 = load ptr, ptr %m_data, align 8
  %1 = load i32, ptr %idx.addr, align 4
  %idxprom = zext i32 %1 to i64
  %arrayidx = getelementptr inbounds i32, ptr %0, i64 %idxprom
  ret ptr %arrayidx
}

; Function Attrs: mustprogress nounwind uwtable
define linkonce_odr hidden noundef nonnull align 4 dereferenceable(4) ptr @_ZNK6vectorIiLb0EjEixEj(ptr noundef nonnull align 8 dereferenceable(8) %this, i32 noundef %idx) #4 comdat align 2 {
entry:
  %this.addr = alloca ptr, align 8
  %idx.addr = alloca i32, align 4
  store ptr %this, ptr %this.addr, align 8
  store i32 %idx, ptr %idx.addr, align 4
  %this1 = load ptr, ptr %this.addr, align 8
  %m_data = getelementptr inbounds %class.vector.87, ptr %this1, i32 0, i32 0
  %0 = load ptr, ptr %m_data, align 8
  %1 = load i32, ptr %idx.addr, align 4
  %idxprom = zext i32 %1 to i64
  %arrayidx = getelementptr inbounds i32, ptr %0, i64 %idxprom
  ret ptr %arrayidx
}

; Function Attrs: mustprogress nounwind uwtable
define linkonce_odr hidden noundef i32 @_ZNK6vectorIiLb0EjE4sizeEv(ptr noundef nonnull align 8 dereferenceable(8) %this) #4 comdat align 2 {
entry:
  %retval = alloca i32, align 4
  %this.addr = alloca ptr, align 8
  store ptr %this, ptr %this.addr, align 8
  %this1 = load ptr, ptr %this.addr, align 8
  %m_data = getelementptr inbounds %class.vector.87, ptr %this1, i32 0, i32 0
  %0 = load ptr, ptr %m_data, align 8
  %cmp = icmp eq ptr %0, null
  br i1 %cmp, label %if.then, label %if.end

if.then:                                          ; preds = %entry
  store i32 0, ptr %retval, align 4
  br label %return

if.end:                                           ; preds = %entry
  %m_data2 = getelementptr inbounds %class.vector.87, ptr %this1, i32 0, i32 0
  %1 = load ptr, ptr %m_data2, align 8
  %arrayidx = getelementptr inbounds i32, ptr %1, i64 -1
  %2 = load i32, ptr %arrayidx, align 4
  store i32 %2, ptr %retval, align 4
  br label %return

return:                                           ; preds = %if.end, %if.then
  %3 = load i32, ptr %retval, align 4
  ret i32 %3
}

; Function Attrs: mustprogress uwtable
define internal void @_ZN4heapIN12_GLOBAL__N_115bool_var_act_ltEE9increasedEi(ptr noundef nonnull align 8 dereferenceable(24) %this, i32 noundef %val) #5 align 2 {
entry:
  %this.addr = alloca ptr, align 8
  %val.addr = alloca i32, align 4
  store ptr %this, ptr %this.addr, align 8
  store i32 %val, ptr %val.addr, align 4
  %this1 = load ptr, ptr %this.addr, align 8
  %m_value2indices = getelementptr inbounds %class.heap, ptr %this1, i32 0, i32 2
  %0 = load i32, ptr %val.addr, align 4
  %call = call noundef nonnull align 4 dereferenceable(4) ptr @_ZN6vectorIiLb0EjEixEj(ptr noundef nonnull align 8 dereferenceable(8) %m_value2indices, i32 noundef %0)
  %1 = load i32, ptr %call, align 4
  call void @_ZN4heapIN12_GLOBAL__N_115bool_var_act_ltEE9move_downEi(ptr noundef nonnull align 8 dereferenceable(24) %this1, i32 noundef %1)
  ret void
}

; Function Attrs: mustprogress uwtable
define internal noundef zeroext i1 @_ZNK4heapIN12_GLOBAL__N_115bool_var_act_ltEE8containsEi(ptr noundef nonnull align 8 dereferenceable(24) %this, i32 noundef %val) #5 align 2 {
entry:
  %this.addr = alloca ptr, align 8
  %val.addr = alloca i32, align 4
  store ptr %this, ptr %this.addr, align 8
  store i32 %val, ptr %val.addr, align 4
  %this1 = load ptr, ptr %this.addr, align 8
  %0 = load i32, ptr %val.addr, align 4
  %m_value2indices = getelementptr inbounds %class.heap, ptr %this1, i32 0, i32 2
  %call = call noundef i32 @_ZNK6vectorIiLb0EjE4sizeEv(ptr noundef nonnull align 8 dereferenceable(8) %m_value2indices)
  %cmp = icmp slt i32 %0, %call
  br i1 %cmp, label %land.rhs, label %land.end

land.rhs:                                         ; preds = %entry
  %m_value2indices2 = getelementptr inbounds %class.heap, ptr %this1, i32 0, i32 2
  %1 = load i32, ptr %val.addr, align 4
  %call3 = call noundef nonnull align 4 dereferenceable(4) ptr @_ZNK6vectorIiLb0EjEixEj(ptr noundef nonnull align 8 dereferenceable(8) %m_value2indices2, i32 noundef %1)
  %2 = load i32, ptr %call3, align 4
  %cmp4 = icmp ne i32 %2, 0
  br label %land.end

land.end:                                         ; preds = %land.rhs, %entry
  %3 = phi i1 [ false, %entry ], [ %cmp4, %land.rhs ]
  ret i1 %3
}

; Function Attrs: mustprogress uwtable
define internal void @_ZN12_GLOBAL__N_120act_case_split_queue21activity_decreased_ehEj(ptr noundef nonnull align 8 dereferenceable(48) %this, i32 noundef %v) unnamed_addr #5 align 2 {
entry:
  %this.addr = alloca ptr, align 8
  %v.addr = alloca i32, align 4
  store ptr %this, ptr %this.addr, align 8
  store i32 %v, ptr %v.addr, align 4
  %this1 = load ptr, ptr %this.addr, align 8
  %m_queue = getelementptr inbounds %"class.(anonymous namespace)::act_case_split_queue", ptr %this1, i32 0, i32 3
  %0 = load i32, ptr %v.addr, align 4
  %call = call noundef zeroext i1 @_ZNK4heapIN12_GLOBAL__N_115bool_var_act_ltEE8containsEi(ptr noundef nonnull align 8 dereferenceable(24) %m_queue, i32 noundef %0)
  br i1 %call, label %if.then, label %if.end

if.then:                                          ; preds = %entry
  %m_queue2 = getelementptr inbounds %"class.(anonymous namespace)::act_case_split_queue", ptr %this1, i32 0, i32 3
  %1 = load i32, ptr %v.addr, align 4
  call void @_ZN4heapIN12_GLOBAL__N_115bool_var_act_ltEE9increasedEi(ptr noundef nonnull align 8 dereferenceable(24) %m_queue2, i32 noundef %1)
  br label %if.end

if.end:                                           ; preds = %if.then, %entry
  ret void
}