; Function Attrs: mustprogress nofree norecurse nosync nounwind memory(readwrite, inaccessiblemem: none) uwtable
define internal void @_ZN12_GLOBAL__N_120act_case_split_queue21activity_decreased_ehEj(ptr nocapture noundef nonnull readonly align 8 dereferenceable(48) %this, i32 noundef %v) unnamed_addr #4 align 2 {
entry:
  %m_queue = getelementptr inbounds i8, ptr %this, i64 24
  %0 = getelementptr inbounds i8, ptr %this, i64 40
  %m_queue.val = load ptr, ptr %0, align 8
  %cmp.i.i = icmp eq ptr %m_queue.val, null
  br i1 %cmp.i.i, label %_ZNK6vectorIiLb0EjE4sizeEv.exit.i, label %if.end.i.i

if.end.i.i:                                       ; preds = %entry
  %arrayidx.i.i = getelementptr inbounds i8, ptr %m_queue.val, i64 -4
  %1 = load i32, ptr %arrayidx.i.i, align 4
  br label %_ZNK6vectorIiLb0EjE4sizeEv.exit.i

_ZNK6vectorIiLb0EjE4sizeEv.exit.i:                ; preds = %if.end.i.i, %entry
  %retval.0.i.i = phi i32 [ %1, %if.end.i.i ], [ 0, %entry ]
  %cmp.i = icmp sgt i32 %retval.0.i.i, %v
  br i1 %cmp.i, label %_ZNK4heapIN12_GLOBAL__N_115bool_var_act_ltEE8containsEi.exit, label %if.end

_ZNK4heapIN12_GLOBAL__N_115bool_var_act_ltEE8containsEi.exit: ; preds = %_ZNK6vectorIiLb0EjE4sizeEv.exit.i
  %idxprom.i.i = zext i32 %v to i64
  %arrayidx.i2.i = getelementptr inbounds i32, ptr %m_queue.val, i64 %idxprom.i.i
  %2 = load i32, ptr %arrayidx.i2.i, align 4
  %cmp4.i.not = icmp eq i32 %2, 0
  br i1 %cmp4.i.not, label %if.end, label %if.then

if.then:                                          ; preds = %_ZNK4heapIN12_GLOBAL__N_115bool_var_act_ltEE8containsEi.exit
  %m_values.i.i = getelementptr inbounds i8, ptr %this, i64 32
  %3 = load ptr, ptr %m_values.i.i, align 8
  %idxprom.i.i.i = zext i32 %2 to i64
  %arrayidx.i.i.i = getelementptr inbounds i32, ptr %3, i64 %idxprom.i.i.i
  %4 = load i32, ptr %arrayidx.i.i.i, align 4
  %arrayidx.i18.i.i = getelementptr inbounds i8, ptr %3, i64 -4
  %5 = load i32, ptr %arrayidx.i18.i.i, align 4
  %shl.i39.i.i = shl i32 %2, 1
  %cmp.not40.i.i = icmp slt i32 %shl.i39.i.i, %5
  %idxprom.i1.i.i28.i.i = zext i32 %4 to i64
  br i1 %cmp.not40.i.i, label %if.end.i.i4, label %_ZN4heapIN12_GLOBAL__N_115bool_var_act_ltEE9increasedEi.exit

if.end.i.i4:                                      ; preds = %if.then, %if.end16.i.i
  %shl.i42.i.i = phi i32 [ %shl.i.i.i, %if.end16.i.i ], [ %shl.i39.i.i, %if.then ]
  %idx.addr.041.i.i = phi i32 [ %cond.i.i, %if.end16.i.i ], [ %2, %if.then ]
  %add.i.i.i = or disjoint i32 %shl.i42.i.i, 1
  %cmp6.i.i = icmp slt i32 %add.i.i.i, %5
  %.pre.pre.i.i = load ptr, ptr %m_values.i.i, align 8
  br i1 %cmp6.i.i, label %land.lhs.true.i.i, label %if.end.cond.false_crit_edge.i.i

if.end.cond.false_crit_edge.i.i:                  ; preds = %if.end.i.i4
  %.pre44.phi.trans.insert.i.i = zext i32 %shl.i42.i.i to i64
  %arrayidx.i25.phi.trans.insert.phi.trans.insert.i.i = getelementptr inbounds i32, ptr %.pre.pre.i.i, i64 %.pre44.phi.trans.insert.i.i
  %.pre45.pre.i.i = load i32, ptr %arrayidx.i25.phi.trans.insert.phi.trans.insert.i.i, align 4
  %this.val.pre.pre.i.i = load ptr, ptr %m_queue, align 8
  %this.val.val.pre.pre.i.i = load ptr, ptr %this.val.pre.pre.i.i, align 8
  %idxprom.i.i.i26.phi.trans.insert.phi.trans.insert.i.i = zext i32 %.pre45.pre.i.i to i64
  %arrayidx.i.i.i27.phi.trans.insert.phi.trans.insert.i.i = getelementptr inbounds double, ptr %this.val.val.pre.pre.i.i, i64 %idxprom.i.i.i26.phi.trans.insert.phi.trans.insert.i.i
  %.pre48.pre.i.i = load double, ptr %arrayidx.i.i.i27.phi.trans.insert.phi.trans.insert.i.i, align 8
  br label %cond.end.i.i

land.lhs.true.i.i:                                ; preds = %if.end.i.i4
  %idxprom.i20.i.i = zext i32 %add.i.i.i to i64
  %arrayidx.i21.i.i = getelementptr inbounds i32, ptr %.pre.pre.i.i, i64 %idxprom.i20.i.i
  %6 = load i32, ptr %arrayidx.i21.i.i, align 4
  %idxprom.i22.i.i = zext i32 %shl.i42.i.i to i64
  %arrayidx.i23.i.i = getelementptr inbounds i32, ptr %.pre.pre.i.i, i64 %idxprom.i22.i.i
  %7 = load i32, ptr %arrayidx.i23.i.i, align 4
  %this.val17.i.i = load ptr, ptr %m_queue, align 8
  %this.val17.val.i.i = load ptr, ptr %this.val17.i.i, align 8
  %idxprom.i.i.i.i.i = zext i32 %6 to i64
  %arrayidx.i.i.i.i.i = getelementptr inbounds double, ptr %this.val17.val.i.i, i64 %idxprom.i.i.i.i.i
  %8 = load double, ptr %arrayidx.i.i.i.i.i, align 8
  %idxprom.i1.i.i.i.i = zext i32 %7 to i64
  %arrayidx.i2.i.i.i.i = getelementptr inbounds double, ptr %this.val17.val.i.i, i64 %idxprom.i1.i.i.i.i
  %9 = load double, ptr %arrayidx.i2.i.i.i.i, align 8
  %cmp.i.i.i.i = fcmp ogt double %8, %9
  br i1 %cmp.i.i.i.i, label %cond.end.i.i, label %cond.false.i.i

cond.false.i.i:                                   ; preds = %land.lhs.true.i.i
  br label %cond.end.i.i

cond.end.i.i:                                     ; preds = %cond.false.i.i, %land.lhs.true.i.i, %if.end.cond.false_crit_edge.i.i
  %idxprom.i.i.i26.pre-phi.i.i = phi i64 [ %idxprom.i.i.i.i.i, %land.lhs.true.i.i ], [ %idxprom.i.i.i26.phi.trans.insert.phi.trans.insert.i.i, %if.end.cond.false_crit_edge.i.i ], [ %idxprom.i1.i.i.i.i, %cond.false.i.i ]
  %10 = phi double [ %8, %land.lhs.true.i.i ], [ %.pre48.pre.i.i, %if.end.cond.false_crit_edge.i.i ], [ %9, %cond.false.i.i ]
  %this.val.val.i.i = phi ptr [ %this.val17.val.i.i, %land.lhs.true.i.i ], [ %this.val.val.pre.pre.i.i, %if.end.cond.false_crit_edge.i.i ], [ %this.val17.val.i.i, %cond.false.i.i ]
  %11 = phi i32 [ %6, %land.lhs.true.i.i ], [ %.pre45.pre.i.i, %if.end.cond.false_crit_edge.i.i ], [ %7, %cond.false.i.i ]
  %cond.i.i = phi i32 [ %add.i.i.i, %land.lhs.true.i.i ], [ %shl.i42.i.i, %if.end.cond.false_crit_edge.i.i ], [ %shl.i42.i.i, %cond.false.i.i ]
  %arrayidx.i2.i.i29.i.i = getelementptr inbounds double, ptr %this.val.val.i.i, i64 %idxprom.i1.i.i28.i.i
  %12 = load double, ptr %arrayidx.i2.i.i29.i.i, align 8
  %cmp.i.i30.i.i = fcmp ogt double %10, %12
  br i1 %cmp.i.i30.i.i, label %if.end16.i.i, label %while.end.loopexit.i.i

if.end16.i.i:                                     ; preds = %cond.end.i.i
  %idxprom.i31.i.i = zext i32 %idx.addr.041.i.i to i64
  %arrayidx.i32.i.i = getelementptr inbounds i32, ptr %.pre.pre.i.i, i64 %idxprom.i31.i.i
  store i32 %11, ptr %arrayidx.i32.i.i, align 4
  %13 = load ptr, ptr %0, align 8
  %arrayidx.i34.i.i = getelementptr inbounds i32, ptr %13, i64 %idxprom.i.i.i26.pre-phi.i.i
  store i32 %idx.addr.041.i.i, ptr %arrayidx.i34.i.i, align 4
  %shl.i.i.i = shl i32 %cond.i.i, 1
  %cmp.not.i.i = icmp slt i32 %shl.i.i.i, %5
  br i1 %cmp.not.i.i, label %if.end.i.i4, label %if.end16.while.end.loopexit_crit_edge.i.i, !llvm.loop !8

if.end16.while.end.loopexit_crit_edge.i.i:        ; preds = %if.end16.i.i
  %.pre49.pre.i.i = load ptr, ptr %m_values.i.i, align 8
  br label %while.end.loopexit.i.i

while.end.loopexit.i.i:                           ; preds = %cond.end.i.i, %if.end16.while.end.loopexit_crit_edge.i.i
  %.pre49.i.i = phi ptr [ %.pre49.pre.i.i, %if.end16.while.end.loopexit_crit_edge.i.i ], [ %.pre.pre.i.i, %cond.end.i.i ]
  %idx.addr.0.lcssa.ph.i.i = phi i32 [ %cond.i.i, %if.end16.while.end.loopexit_crit_edge.i.i ], [ %idx.addr.041.i.i, %cond.end.i.i ]
  %.pre.i.i = zext i32 %idx.addr.0.lcssa.ph.i.i to i64
  br label %_ZN4heapIN12_GLOBAL__N_115bool_var_act_ltEE9increasedEi.exit

_ZN4heapIN12_GLOBAL__N_115bool_var_act_ltEE9increasedEi.exit: ; preds = %if.then, %while.end.loopexit.i.i
  %idxprom.i35.pre-phi.i.i = phi i64 [ %.pre.i.i, %while.end.loopexit.i.i ], [ %idxprom.i.i.i, %if.then ]
  %14 = phi ptr [ %.pre49.i.i, %while.end.loopexit.i.i ], [ %3, %if.then ]
  %idx.addr.0.lcssa.i.i = phi i32 [ %idx.addr.0.lcssa.ph.i.i, %while.end.loopexit.i.i ], [ %2, %if.then ]
  %arrayidx.i36.i.i = getelementptr inbounds i32, ptr %14, i64 %idxprom.i35.pre-phi.i.i
  store i32 %4, ptr %arrayidx.i36.i.i, align 4
  %15 = load ptr, ptr %0, align 8
  %arrayidx.i38.i.i = getelementptr inbounds i32, ptr %15, i64 %idxprom.i1.i.i28.i.i
  store i32 %idx.addr.0.lcssa.i.i, ptr %arrayidx.i38.i.i, align 4
  br label %if.end

if.end:                                           ; preds = %_ZNK6vectorIiLb0EjE4sizeEv.exit.i, %_ZN4heapIN12_GLOBAL__N_115bool_var_act_ltEE9increasedEi.exit, %_ZNK4heapIN12_GLOBAL__N_115bool_var_act_ltEE8containsEi.exit
  ret void
}